target datalayout = "e-m:e-p270:32:32-p271:32:32-p272:64:64-i64:64-i128:128-f80:128-n8:16:32:64-S128"
target triple = "x86_64-pc-linux-gnu"

@hf_dplay_type_29_player_count = internal global i32 0, align 4
@hf_dplay_type_29_group_count = internal global i32 0, align 4
@hf_dplay_type_29_packed_offset = internal global i32 0, align 4
@hf_dplay_type_29_shortcut_count = internal global i32 0, align 4
@hf_dplay_type_29_description_offset = internal global i32 0, align 4
@hf_dplay_type_29_name_offset = internal global i32 0, align 4
@hf_dplay_type_29_password_offset = internal global i32 0, align 4
@hf_dplay_type_29_game_name = internal global i32 0, align 4
@hf_dplay_type_29_password = internal global i32 0, align 4
@ett_dplay_type29_spp = internal global i32 0, align 4
@.str.410 = private unnamed_addr constant [10 x i8] c"Player %d\00", align 1
@.str.411 = private unnamed_addr constant [9 x i8] c"Group %d\00", align 1
@.str.412 = private unnamed_addr constant [12 x i8] c"Shortcut %d\00", align 1

; Function Attrs: null_pointer_is_valid sspstrong uwtable
define internal i32 @display_unicode_string(ptr noundef %0, i32 noundef %1, ptr noundef %2, i32 noundef %3) #0 {
  %5 = alloca ptr, align 8
  %6 = alloca i32, align 4
  %7 = alloca ptr, align 8
  %8 = alloca i32, align 4
  %9 = alloca ptr, align 8
  %10 = alloca i32, align 4
  store ptr %0, ptr %5, align 8
  store i32 %1, ptr %6, align 4
  store ptr %2, ptr %7, align 8
  store i32 %3, ptr %8, align 4
  call void @llvm.lifetime.start.p0(i64 8, ptr %9) #5
  call void @llvm.lifetime.start.p0(i64 4, ptr %10) #5
  %11 = call ptr @wmem_packet_scope()
  %12 = load ptr, ptr %7, align 8
  %13 = load i32, ptr %8, align 4
  %14 = call ptr @tvb_get_stringz_enc(ptr noundef %11, ptr noundef %12, i32 noundef %13, ptr noundef %10, i32 noundef -2147483644)
  store ptr %14, ptr %9, align 8
  %15 = load ptr, ptr %5, align 8
  %16 = load i32, ptr %6, align 4
  %17 = load ptr, ptr %7, align 8
  %18 = load i32, ptr %8, align 4
  %19 = load i32, ptr %10, align 4
  %20 = load ptr, ptr %9, align 8
  %21 = call ptr @proto_tree_add_string(ptr noundef %15, i32 noundef %16, ptr noundef %17, i32 noundef %18, i32 noundef %19, ptr noundef %20)
  %22 = load i32, ptr %8, align 4
  %23 = load i32, ptr %10, align 4
  %24 = add i32 %22, %23
  call void @llvm.lifetime.end.p0(i64 4, ptr %10) #5
  call void @llvm.lifetime.end.p0(i64 8, ptr %9) #5
  ret i32 %24
}

; Function Attrs: null_pointer_is_valid sspstrong uwtable
define internal i32 @dissect_type29_message(ptr noundef %0, ptr noundef %1, i32 noundef %2) #0 {
  %4 = alloca ptr, align 8
  %5 = alloca ptr, align 8
  %6 = alloca i32, align 4
  %7 = alloca i32, align 4
  %8 = alloca i32, align 4
  %9 = alloca i32, align 4
  %10 = alloca i32, align 4
  %11 = alloca i32, align 4
  %12 = alloca ptr, align 8
  %13 = alloca ptr, align 8
  %14 = alloca ptr, align 8
  store ptr %0, ptr %4, align 8
  store ptr %1, ptr %5, align 8
  store i32 %2, ptr %6, align 4
  call void @llvm.lifetime.start.p0(i64 4, ptr %7) #5
  %15 = load ptr, ptr %5, align 8
  %16 = load i32, ptr %6, align 4
  %17 = add i32 %16, 24
  %18 = call i32 @tvb_get_letohl(ptr noundef %15, i32 noundef %17)
  store i32 %18, ptr %7, align 4
  call void @llvm.lifetime.start.p0(i64 4, ptr %8) #5
  call void @llvm.lifetime.start.p0(i64 4, ptr %9) #5
  call void @llvm.lifetime.start.p0(i64 4, ptr %10) #5
  call void @llvm.lifetime.start.p0(i64 4, ptr %11) #5
  %19 = load ptr, ptr %5, align 8
  %20 = load i32, ptr %6, align 4
  %21 = call i32 @tvb_get_letohl(ptr noundef %19, i32 noundef %20)
  store i32 %21, ptr %8, align 4
  %22 = load ptr, ptr %4, align 8
  %23 = load i32, ptr @hf_dplay_type_29_player_count, align 4
  %24 = load ptr, ptr %5, align 8
  %25 = load i32, ptr %6, align 4
  %26 = call ptr @proto_tree_add_item(ptr noundef %22, i32 noundef %23, ptr noundef %24, i32 noundef %25, i32 noundef 4, i32 noundef -2147483648)
  %27 = load i32, ptr %6, align 4
  %28 = add i32 %27, 4
  store i32 %28, ptr %6, align 4
  %29 = load ptr, ptr %5, align 8
  %30 = load i32, ptr %6, align 4
  %31 = call i32 @tvb_get_letohl(ptr noundef %29, i32 noundef %30)
  store i32 %31, ptr %9, align 4
  %32 = load ptr, ptr %4, align 8
  %33 = load i32, ptr @hf_dplay_type_29_group_count, align 4
  %34 = load ptr, ptr %5, align 8
  %35 = load i32, ptr %6, align 4
  %36 = call ptr @proto_tree_add_item(ptr noundef %32, i32 noundef %33, ptr noundef %34, i32 noundef %35, i32 noundef 4, i32 noundef -2147483648)
  %37 = load i32, ptr %6, align 4
  %38 = add i32 %37, 4
  store i32 %38, ptr %6, align 4
  %39 = load ptr, ptr %4, align 8
  %40 = load i32, ptr @hf_dplay_type_29_packed_offset, align 4
  %41 = load ptr, ptr %5, align 8
  %42 = load i32, ptr %6, align 4
  %43 = call ptr @proto_tree_add_item(ptr noundef %39, i32 noundef %40, ptr noundef %41, i32 noundef %42, i32 noundef 4, i32 noundef -2147483648)
  %44 = load i32, ptr %6, align 4
  %45 = add i32 %44, 4
  store i32 %45, ptr %6, align 4
  %46 = load ptr, ptr %5, align 8
  %47 = load i32, ptr %6, align 4
  %48 = call i32 @tvb_get_letohl(ptr noundef %46, i32 noundef %47)
  store i32 %48, ptr %10, align 4
  %49 = load ptr, ptr %4, align 8
  %50 = load i32, ptr @hf_dplay_type_29_shortcut_count, align 4
  %51 = load ptr, ptr %5, align 8
  %52 = load i32, ptr %6, align 4
  %53 = call ptr @proto_tree_add_item(ptr noundef %49, i32 noundef %50, ptr noundef %51, i32 noundef %52, i32 noundef 4, i32 noundef -2147483648)
  %54 = load i32, ptr %6, align 4
  %55 = add i32 %54, 4
  store i32 %55, ptr %6, align 4
  %56 = load ptr, ptr %4, align 8
  %57 = load i32, ptr @hf_dplay_type_29_description_offset, align 4
  %58 = load ptr, ptr %5, align 8
  %59 = load i32, ptr %6, align 4
  %60 = call ptr @proto_tree_add_item(ptr noundef %56, i32 noundef %57, ptr noundef %58, i32 noundef %59, i32 noundef 4, i32 noundef -2147483648)
  %61 = load i32, ptr %6, align 4
  %62 = add i32 %61, 4
  store i32 %62, ptr %6, align 4
  %63 = load ptr, ptr %4, align 8
  %64 = load i32, ptr @hf_dplay_type_29_name_offset, align 4
  %65 = load ptr, ptr %5, align 8
  %66 = load i32, ptr %6, align 4
  %67 = call ptr @proto_tree_add_item(ptr noundef %63, i32 noundef %64, ptr noundef %65, i32 noundef %66, i32 noundef 4, i32 noundef -2147483648)
  %68 = load i32, ptr %6, align 4
  %69 = add i32 %68, 4
  store i32 %69, ptr %6, align 4
  %70 = load ptr, ptr %4, align 8
  %71 = load i32, ptr @hf_dplay_type_29_password_offset, align 4
  %72 = load ptr, ptr %5, align 8
  %73 = load i32, ptr %6, align 4
  %74 = call ptr @proto_tree_add_item(ptr noundef %70, i32 noundef %71, ptr noundef %72, i32 noundef %73, i32 noundef 4, i32 noundef -2147483648)
  %75 = load i32, ptr %6, align 4
  %76 = add i32 %75, 4
  store i32 %76, ptr %6, align 4
  %77 = load ptr, ptr %4, align 8
  %78 = load ptr, ptr %5, align 8
  %79 = load i32, ptr %6, align 4
  %80 = call i32 @dissect_session_desc(ptr noundef %77, ptr noundef %78, i32 noundef %79)
  store i32 %80, ptr %6, align 4
  %81 = load ptr, ptr %4, align 8
  %82 = load i32, ptr @hf_dplay_type_29_game_name, align 4
  %83 = load ptr, ptr %5, align 8
  %84 = load i32, ptr %6, align 4
  %85 = call i32 @display_unicode_string(ptr noundef %81, i32 noundef %82, ptr noundef %83, i32 noundef %84)
  store i32 %85, ptr %6, align 4
  %86 = load i32, ptr %7, align 4
  %87 = icmp ne i32 %86, 0
  br i1 %87, label %88, label %94

88:                                               ; preds = %3
  %89 = load ptr, ptr %4, align 8
  %90 = load i32, ptr @hf_dplay_type_29_password, align 4
  %91 = load ptr, ptr %5, align 8
  %92 = load i32, ptr %6, align 4
  %93 = call i32 @display_unicode_string(ptr noundef %89, i32 noundef %90, ptr noundef %91, i32 noundef %92)
  store i32 %93, ptr %6, align 4
  br label %94

94:                                               ; preds = %88, %3
  store i32 0, ptr %11, align 4
  br label %95

95:                                               ; preds = %110, %94
  %96 = load i32, ptr %11, align 4
  %97 = load i32, ptr %8, align 4
  %98 = icmp slt i32 %96, %97
  br i1 %98, label %99, label %113

99:                                               ; preds = %95
  call void @llvm.lifetime.start.p0(i64 8, ptr %12) #5
  %100 = load ptr, ptr %4, align 8
  %101 = load ptr, ptr %5, align 8
  %102 = load i32, ptr %6, align 4
  %103 = load i32, ptr @ett_dplay_type29_spp, align 4
  %104 = load i32, ptr %11, align 4
  %105 = call ptr (ptr, ptr, i32, i32, i32, ptr, ptr, ...) @proto_tree_add_subtree_format(ptr noundef %100, ptr noundef %101, i32 noundef %102, i32 noundef 0, i32 noundef %103, ptr noundef null, ptr noundef @.str.410, i32 noundef %104)
  store ptr %105, ptr %12, align 8
  %106 = load ptr, ptr %12, align 8
  %107 = load ptr, ptr %5, align 8
  %108 = load i32, ptr %6, align 4
  %109 = call i32 @dissect_dplay_super_packed_player(ptr noundef %106, ptr noundef %107, i32 noundef %108)
  store i32 %109, ptr %6, align 4
  call void @llvm.lifetime.end.p0(i64 8, ptr %12) #5
  br label %110

110:                                              ; preds = %99
  %111 = load i32, ptr %11, align 4
  %112 = add i32 %111, 1
  store i32 %112, ptr %11, align 4
  br label %95, !llvm.loop !8

113:                                              ; preds = %95
  store i32 0, ptr %11, align 4
  br label %114

114:                                              ; preds = %129, %113
  %115 = load i32, ptr %11, align 4
  %116 = load i32, ptr %9, align 4
  %117 = icmp slt i32 %115, %116
  br i1 %117, label %118, label %132

118:                                              ; preds = %114
  call void @llvm.lifetime.start.p0(i64 8, ptr %13) #5
  %119 = load ptr, ptr %4, align 8
  %120 = load ptr, ptr %5, align 8
  %121 = load i32, ptr %6, align 4
  %122 = load i32, ptr @ett_dplay_type29_spp, align 4
  %123 = load i32, ptr %11, align 4
  %124 = call ptr (ptr, ptr, i32, i32, i32, ptr, ptr, ...) @proto_tree_add_subtree_format(ptr noundef %119, ptr noundef %120, i32 noundef %121, i32 noundef 0, i32 noundef %122, ptr noundef null, ptr noundef @.str.411, i32 noundef %123)
  store ptr %124, ptr %13, align 8
  %125 = load ptr, ptr %13, align 8
  %126 = load ptr, ptr %5, align 8
  %127 = load i32, ptr %6, align 4
  %128 = call i32 @dissect_dplay_super_packed_player(ptr noundef %125, ptr noundef %126, i32 noundef %127)
  store i32 %128, ptr %6, align 4
  call void @llvm.lifetime.end.p0(i64 8, ptr %13) #5
  br label %129

129:                                              ; preds = %118
  %130 = load i32, ptr %11, align 4
  %131 = add i32 %130, 1
  store i32 %131, ptr %11, align 4
  br label %114, !llvm.loop !9

132:                                              ; preds = %114
  store i32 0, ptr %11, align 4
  br label %133

133:                                              ; preds = %148, %132
  %134 = load i32, ptr %11, align 4
  %135 = load i32, ptr %10, align 4
  %136 = icmp slt i32 %134, %135
  br i1 %136, label %137, label %151

137:                                              ; preds = %133
  call void @llvm.lifetime.start.p0(i64 8, ptr %14) #5
  %138 = load ptr, ptr %4, align 8
  %139 = load ptr, ptr %5, align 8
  %140 = load i32, ptr %6, align 4
  %141 = load i32, ptr @ett_dplay_type29_spp, align 4
  %142 = load i32, ptr %11, align 4
  %143 = call ptr (ptr, ptr, i32, i32, i32, ptr, ptr, ...) @proto_tree_add_subtree_format(ptr noundef %138, ptr noundef %139, i32 noundef %140, i32 noundef 0, i32 noundef %141, ptr noundef null, ptr noundef @.str.412, i32 noundef %142)
  store ptr %143, ptr %14, align 8
  %144 = load ptr, ptr %14, align 8
  %145 = load ptr, ptr %5, align 8
  %146 = load i32, ptr %6, align 4
  %147 = call i32 @dissect_dplay_super_packed_player(ptr noundef %144, ptr noundef %145, i32 noundef %146)
  store i32 %147, ptr %6, align 4
  call void @llvm.lifetime.end.p0(i64 8, ptr %14) #5
  br label %148

148:                                              ; preds = %137
  %149 = load i32, ptr %11, align 4
  %150 = add i32 %149, 1
  store i32 %150, ptr %11, align 4
  br label %133, !llvm.loop !10

151:                                              ; preds = %133
  %152 = load i32, ptr %6, align 4
  call void @llvm.lifetime.end.p0(i64 4, ptr %11) #5
  call void @llvm.lifetime.end.p0(i64 4, ptr %10) #5
  call void @llvm.lifetime.end.p0(i64 4, ptr %9) #5
  call void @llvm.lifetime.end.p0(i64 4, ptr %8) #5
  call void @llvm.lifetime.end.p0(i64 4, ptr %7) #5
  ret i32 %152
}