; Function Attrs: null_pointer_is_valid sspstrong uwtable
define internal fastcc void @dissect_type29_message(ptr noundef %0, ptr noundef %1) unnamed_addr #0 {
  %3 = alloca i32, align 4
  %4 = alloca i32, align 4
  %5 = tail call i32 @tvb_get_letohl(ptr noundef %1, i32 noundef 52)
  %6 = tail call i32 @tvb_get_letohl(ptr noundef %1, i32 noundef 28)
  %7 = load i32, ptr @hf_dplay_type_29_player_count, align 4
  %8 = tail call ptr @proto_tree_add_item(ptr noundef %0, i32 noundef %7, ptr noundef %1, i32 noundef 28, i32 noundef 4, i32 noundef -2147483648)
  %9 = tail call i32 @tvb_get_letohl(ptr noundef %1, i32 noundef 32)
  %10 = load i32, ptr @hf_dplay_type_29_group_count, align 4
  %11 = tail call ptr @proto_tree_add_item(ptr noundef %0, i32 noundef %10, ptr noundef %1, i32 noundef 32, i32 noundef 4, i32 noundef -2147483648)
  %12 = load i32, ptr @hf_dplay_type_29_packed_offset, align 4
  %13 = tail call ptr @proto_tree_add_item(ptr noundef %0, i32 noundef %12, ptr noundef %1, i32 noundef 36, i32 noundef 4, i32 noundef -2147483648)
  %14 = tail call i32 @tvb_get_letohl(ptr noundef %1, i32 noundef 40)
  %15 = load i32, ptr @hf_dplay_type_29_shortcut_count, align 4
  %16 = tail call ptr @proto_tree_add_item(ptr noundef %0, i32 noundef %15, ptr noundef %1, i32 noundef 40, i32 noundef 4, i32 noundef -2147483648)
  %17 = load i32, ptr @hf_dplay_type_29_description_offset, align 4
  %18 = tail call ptr @proto_tree_add_item(ptr noundef %0, i32 noundef %17, ptr noundef %1, i32 noundef 44, i32 noundef 4, i32 noundef -2147483648)
  %19 = load i32, ptr @hf_dplay_type_29_name_offset, align 4
  %20 = tail call ptr @proto_tree_add_item(ptr noundef %0, i32 noundef %19, ptr noundef %1, i32 noundef 48, i32 noundef 4, i32 noundef -2147483648)
  %21 = load i32, ptr @hf_dplay_type_29_password_offset, align 4
  %22 = tail call ptr @proto_tree_add_item(ptr noundef %0, i32 noundef %21, ptr noundef %1, i32 noundef 52, i32 noundef 4, i32 noundef -2147483648)
  %23 = tail call fastcc i32 @dissect_session_desc(ptr noundef %0, ptr noundef %1, i32 noundef 56)
  %24 = load i32, ptr @hf_dplay_type_29_game_name, align 4
  call void @llvm.lifetime.start.p0(i64 4, ptr nonnull %4) #3
  %25 = tail call ptr @wmem_packet_scope()
  %26 = call ptr @tvb_get_stringz_enc(ptr noundef %25, ptr noundef %1, i32 noundef %23, ptr noundef nonnull %4, i32 noundef -2147483644)
  %27 = load i32, ptr %4, align 4
  %28 = call ptr @proto_tree_add_string(ptr noundef %0, i32 noundef %24, ptr noundef %1, i32 noundef %23, i32 noundef %27, ptr noundef %26)
  %29 = load i32, ptr %4, align 4
  %30 = add i32 %29, %23
  call void @llvm.lifetime.end.p0(i64 4, ptr nonnull %4) #3
  %.not = icmp eq i32 %5, 0
  br i1 %.not, label %39, label %31

31:                                               ; preds = %2
  %32 = load i32, ptr @hf_dplay_type_29_password, align 4
  call void @llvm.lifetime.start.p0(i64 4, ptr nonnull %3) #3
  %33 = call ptr @wmem_packet_scope()
  %34 = call ptr @tvb_get_stringz_enc(ptr noundef %33, ptr noundef %1, i32 noundef %30, ptr noundef nonnull %3, i32 noundef -2147483644)
  %35 = load i32, ptr %3, align 4
  %36 = call ptr @proto_tree_add_string(ptr noundef %0, i32 noundef %32, ptr noundef %1, i32 noundef %30, i32 noundef %35, ptr noundef %34)
  %37 = load i32, ptr %3, align 4
  %38 = add i32 %37, %30
  call void @llvm.lifetime.end.p0(i64 4, ptr nonnull %3) #3
  br label %39

39:                                               ; preds = %31, %2
  %.0 = phi i32 [ %38, %31 ], [ %30, %2 ]
  %40 = icmp sgt i32 %6, 0
  br i1 %40, label %.lr.ph, label %.preheader79

.preheader79:                                     ; preds = %.lr.ph, %39
  %.1.lcssa = phi i32 [ %.0, %39 ], [ %44, %.lr.ph ]
  %41 = icmp sgt i32 %9, 0
  br i1 %41, label %.lr.ph84, label %.preheader

.lr.ph:                                           ; preds = %39, %.lr.ph
  %.181 = phi i32 [ %44, %.lr.ph ], [ %.0, %39 ]
  %.07680 = phi i32 [ %45, %.lr.ph ], [ 0, %39 ]
  %42 = load i32, ptr @ett_dplay_type29_spp, align 4
  %43 = call ptr (ptr, ptr, i32, i32, i32, ptr, ptr, ...) @proto_tree_add_subtree_format(ptr noundef %0, ptr noundef %1, i32 noundef %.181, i32 noundef 0, i32 noundef %42, ptr noundef null, ptr noundef nonnull @.str.410, i32 noundef %.07680)
  %44 = call fastcc i32 @dissect_dplay_super_packed_player(ptr noundef %43, ptr noundef %1, i32 noundef %.181)
  %45 = add nuw nsw i32 %.07680, 1
  %exitcond.not = icmp eq i32 %45, %6
  br i1 %exitcond.not, label %.preheader79, label %.lr.ph, !llvm.loop !8

.preheader:                                       ; preds = %.lr.ph84, %.preheader79
  %.2.lcssa = phi i32 [ %.1.lcssa, %.preheader79 ], [ %49, %.lr.ph84 ]
  %46 = icmp sgt i32 %14, 0
  br i1 %46, label %.lr.ph88, label %._crit_edge

.lr.ph84:                                         ; preds = %.preheader79, %.lr.ph84
  %.283 = phi i32 [ %49, %.lr.ph84 ], [ %.1.lcssa, %.preheader79 ]
  %.17782 = phi i32 [ %50, %.lr.ph84 ], [ 0, %.preheader79 ]
  %47 = load i32, ptr @ett_dplay_type29_spp, align 4
  %48 = call ptr (ptr, ptr, i32, i32, i32, ptr, ptr, ...) @proto_tree_add_subtree_format(ptr noundef %0, ptr noundef %1, i32 noundef %.283, i32 noundef 0, i32 noundef %47, ptr noundef null, ptr noundef nonnull @.str.411, i32 noundef %.17782)
  %49 = call fastcc i32 @dissect_dplay_super_packed_player(ptr noundef %48, ptr noundef %1, i32 noundef %.283)
  %50 = add nuw nsw i32 %.17782, 1
  %exitcond92.not = icmp eq i32 %50, %9
  br i1 %exitcond92.not, label %.preheader, label %.lr.ph84, !llvm.loop !9

.lr.ph88:                                         ; preds = %.preheader, %.lr.ph88
  %.387 = phi i32 [ %53, %.lr.ph88 ], [ %.2.lcssa, %.preheader ]
  %.27886 = phi i32 [ %54, %.lr.ph88 ], [ 0, %.preheader ]
  %51 = load i32, ptr @ett_dplay_type29_spp, align 4
  %52 = call ptr (ptr, ptr, i32, i32, i32, ptr, ptr, ...) @proto_tree_add_subtree_format(ptr noundef %0, ptr noundef %1, i32 noundef %.387, i32 noundef 0, i32 noundef %51, ptr noundef null, ptr noundef nonnull @.str.412, i32 noundef %.27886)
  %53 = call fastcc i32 @dissect_dplay_super_packed_player(ptr noundef %52, ptr noundef %1, i32 noundef %.387)
  %54 = add nuw nsw i32 %.27886, 1
  %exitcond93.not = icmp eq i32 %54, %14
  br i1 %exitcond93.not, label %._crit_edge, label %.lr.ph88, !llvm.loop !10

._crit_edge:                                      ; preds = %.lr.ph88, %.preheader
  ret void
}